opt subtitle "HI-TECH Software Omniscient Code Generator (Lite mode) build 7503"

opt pagewidth 120

	opt lm

	processor	16F887
clrc	macro
	bcf	3,0
	endm
clrz	macro
	bcf	3,2
	endm
setc	macro
	bsf	3,0
	endm
setz	macro
	bsf	3,2
	endm
skipc	macro
	btfss	3,0
	endm
skipz	macro
	btfss	3,2
	endm
skipnc	macro
	btfsc	3,0
	endm
skipnz	macro
	btfsc	3,2
	endm
indf	equ	0
indf0	equ	0
pc	equ	2
pcl	equ	2
status	equ	3
fsr	equ	4
fsr0	equ	4
c	equ	1
z	equ	0
pclath	equ	10
	FNROOT	_main
	global	_s
psect	idataCOMMON,class=CODE,space=0,delta=2
global __pidataCOMMON
__pidataCOMMON:
	file	"D:\pic\PIC programs\PIC16f887\7segment\7 segment cc\one 7 segment\one 7segment.c"
	line	7

;initializer for _s
	retlw	03Fh
	retlw	06h
	retlw	05Bh
	retlw	04Fh
	retlw	066h
	retlw	06Dh
	retlw	07Dh
	retlw	07h
	retlw	07Fh
	retlw	06Fh
	global	_i
	global	_PORTC
_PORTC	set	7
	global	_RA0
_RA0	set	40
	global	_TRISC
_TRISC	set	135
	global	_TRISA0
_TRISA0	set	1064
	global	_ANSEL
_ANSEL	set	392
	global	_ANSELH
_ANSELH	set	393
	file	"one 7segment.as"
	line	#
psect cinit,class=CODE,delta=2
global start_initialization
start_initialization:

psect	bssCOMMON,class=COMMON,space=1
global __pbssCOMMON
__pbssCOMMON:
_i:
       ds      2

psect	dataCOMMON,class=COMMON,space=1
global __pdataCOMMON
__pdataCOMMON:
	file	"D:\pic\PIC programs\PIC16f887\7segment\7 segment cc\one 7 segment\one 7segment.c"
_s:
       ds      10

; Clear objects allocated to COMMON
psect cinit,class=CODE,delta=2
	clrf	((__pbssCOMMON)+0)&07Fh
	clrf	((__pbssCOMMON)+1)&07Fh
global btemp
psect inittext,class=CODE,delta=2
global init_fetch,btemp
;	Called with low address in FSR and high address in W
init_fetch:
	movf btemp,w
	movwf pclath
	movf btemp+1,w
	movwf pc
global init_ram
;Called with:
;	high address of idata address in btemp 
;	low address of idata address in btemp+1 
;	low address of data in FSR
;	high address + 1 of data in btemp-1
init_ram:
	fcall init_fetch
	movwf indf,f
	incf fsr,f
	movf fsr,w
	xorwf btemp-1,w
	btfsc status,2
	retlw 0
	incf btemp+1,f
	btfsc status,2
	incf btemp,f
	goto init_ram
; Initialize objects allocated to COMMON
	global __pidataCOMMON
psect cinit,class=CODE,delta=2
	fcall	__pidataCOMMON+0		;fetch initializer
	movwf	__pdataCOMMON+0&07fh		
	fcall	__pidataCOMMON+1		;fetch initializer
	movwf	__pdataCOMMON+1&07fh		
	fcall	__pidataCOMMON+2		;fetch initializer
	movwf	__pdataCOMMON+2&07fh		
	fcall	__pidataCOMMON+3		;fetch initializer
	movwf	__pdataCOMMON+3&07fh		
	fcall	__pidataCOMMON+4		;fetch initializer
	movwf	__pdataCOMMON+4&07fh		
	fcall	__pidataCOMMON+5		;fetch initializer
	movwf	__pdataCOMMON+5&07fh		
	fcall	__pidataCOMMON+6		;fetch initializer
	movwf	__pdataCOMMON+6&07fh		
	fcall	__pidataCOMMON+7		;fetch initializer
	movwf	__pdataCOMMON+7&07fh		
	fcall	__pidataCOMMON+8		;fetch initializer
	movwf	__pdataCOMMON+8&07fh		
	fcall	__pidataCOMMON+9		;fetch initializer
	movwf	__pdataCOMMON+9&07fh		
psect cinit,class=CODE,delta=2
global end_of_initialization

;End of C runtime variable initialization code

end_of_initialization:
clrf status
ljmp _main	;jump to C main() function
psect	cstackCOMMON,class=COMMON,space=1
global __pcstackCOMMON
__pcstackCOMMON:
	global	?_main
?_main:	; 0 bytes @ 0x0
	global	??_main
??_main:	; 0 bytes @ 0x0
	ds	2
;;Data sizes: Strings 0, constant 0, data 10, bss 2, persistent 0 stack 0
;;Auto spaces:   Size  Autos    Used
;; COMMON          14      2      14
;; BANK0           80      0       0
;; BANK1           80      0       0
;; BANK3           96      0       0
;; BANK2           96      0       0

;;
;; Pointer list with targets:



;;
;; Critical Paths under _main in COMMON
;;
;;   None.
;;
;; Critical Paths under _main in BANK0
;;
;;   None.
;;
;; Critical Paths under _main in BANK1
;;
;;   None.
;;
;; Critical Paths under _main in BANK3
;;
;;   None.
;;
;; Critical Paths under _main in BANK2
;;
;;   None.

;;
;;Main: autosize = 0, tempsize = 2, incstack = 0, save=0
;;

;;
;;Call Graph Tables:
;;
;; ---------------------------------------------------------------------------------
;; (Depth) Function   	        Calls       Base Space   Used Autos Params    Refs
;; ---------------------------------------------------------------------------------
;; (0) _main                                                 2     2      0       0
;;                                              0 COMMON     2     2      0
;; ---------------------------------------------------------------------------------
;; Estimated maximum stack depth 0
;; ---------------------------------------------------------------------------------

;; Call Graph Graphs:

;; _main (ROOT)
;;

;; Address spaces:

;;Name               Size   Autos  Total    Cost      Usage
;;BANK3               60      0       0       9        0.0%
;;BITBANK3            60      0       0       8        0.0%
;;SFR3                 0      0       0       4        0.0%
;;BITSFR3              0      0       0       4        0.0%
;;BANK2               60      0       0      11        0.0%
;;BITBANK2            60      0       0      10        0.0%
;;SFR2                 0      0       0       5        0.0%
;;BITSFR2              0      0       0       5        0.0%
;;SFR1                 0      0       0       2        0.0%
;;BITSFR1              0      0       0       2        0.0%
;;BANK1               50      0       0       7        0.0%
;;BITBANK1            50      0       0       6        0.0%
;;CODE                 0      0       0       0        0.0%
;;DATA                 0      0       E      12        0.0%
;;ABS                  0      0       E       3        0.0%
;;NULL                 0      0       0       0        0.0%
;;STACK                0      0       0       2        0.0%
;;BANK0               50      0       0       5        0.0%
;;BITBANK0            50      0       0       4        0.0%
;;SFR0                 0      0       0       1        0.0%
;;BITSFR0              0      0       0       1        0.0%
;;COMMON               E      2       E       1      100.0%
;;BITCOMMON            E      0       0       0        0.0%
;;EEDATA             100      0       0       0        0.0%

	global	_main
psect	maintext,global,class=CODE,delta=2
global __pmaintext
__pmaintext:

;; *************** function _main *****************
;; Defined at:
;;		line 13 in file "D:\pic\PIC programs\PIC16f887\7segment\7 segment cc\one 7 segment\one 7segment.c"
;; Parameters:    Size  Location     Type
;;		None
;; Auto vars:     Size  Location     Type
;;		None
;; Return value:  Size  Location     Type
;;		None               void
;; Registers used:
;;		wreg, fsr0l, fsr0h, status,2, status,0, btemp+1
;; Tracked objects:
;;		On entry : 17F/0
;;		On exit  : 0/0
;;		Unchanged: 0/0
;; Data sizes:     COMMON   BANK0   BANK1   BANK3   BANK2
;;      Params:         0       0       0       0       0
;;      Locals:         0       0       0       0       0
;;      Temps:          2       0       0       0       0
;;      Totals:         2       0       0       0       0
;;Total ram usage:        2 bytes
;; This function calls:
;;		Nothing
;; This function is called by:
;;		Startup code after reset
;; This function uses a non-reentrant model
;;
psect	maintext
	file	"D:\pic\PIC programs\PIC16f887\7segment\7 segment cc\one 7 segment\one 7segment.c"
	line	13
	global	__size_of_main
	__size_of_main	equ	__end_of_main-_main
	
_main:	
	opt	stack 8
; Regs used in _main: [wreg-fsr0h+status,2+status,0+btemp+1]
	line	14
	
l2177:	
;one 7segment.c: 14: TRISA0=1;
	bsf	status, 5	;RP0=1, select bank1
	bcf	status, 6	;RP1=0, select bank1
	bsf	(1064/8)^080h,(1064)&7
	line	15
	
l2179:	
;one 7segment.c: 15: TRISC=0x00;
	clrf	(135)^080h	;volatile
	line	16
;one 7segment.c: 16: PORTC=0x00;
	bcf	status, 5	;RP0=0, select bank0
	bcf	status, 6	;RP1=0, select bank0
	clrf	(7)	;volatile
	line	17
;one 7segment.c: 17: ANSEL=ANSELH=0;
	bsf	status, 5	;RP0=1, select bank3
	bsf	status, 6	;RP1=1, select bank3
	clrf	(393)^0180h	;volatile
	clrf	(392)^0180h	;volatile
	goto	l1032
	line	19
;one 7segment.c: 19: while(1)
	
l1031:	
	line	21
;one 7segment.c: 20: {
;one 7segment.c: 21: while(RA0==0);
	goto	l1032
	
l1033:	
	
l1032:	
	bcf	status, 5	;RP0=0, select bank0
	bcf	status, 6	;RP1=0, select bank0
	btfss	(40/8),(40)&7
	goto	u2141
	goto	u2140
u2141:
	goto	l1032
u2140:
	goto	l2181
	
l1034:	
	line	22
	
l2181:	
;one 7segment.c: 22: if(i>9)
	movf	(_i+1),w
	xorlw	80h
	movwf	btemp+1
	movlw	(high(0Ah))^80h
	subwf	btemp+1,w
	skipz
	goto	u2155
	movlw	low(0Ah)
	subwf	(_i),w
u2155:

	skipc
	goto	u2151
	goto	u2150
u2151:
	goto	l2187
u2150:
	line	24
	
l2183:	
;one 7segment.c: 23: {
;one 7segment.c: 24: i=0;
	clrf	(_i)
	clrf	(_i+1)
	line	25
	
l2185:	
;one 7segment.c: 25: PORTC=s[i];
	movf	(_i),w
	addlw	_s&0ffh
	movwf	fsr0
	movf	indf,w
	bcf	status, 5	;RP0=0, select bank0
	bcf	status, 6	;RP1=0, select bank0
	movwf	(7)	;volatile
	line	26
;one 7segment.c: 26: }
	goto	l2189
	line	27
	
l1035:	
	line	28
	
l2187:	
;one 7segment.c: 27: else
;one 7segment.c: 28: PORTC=s[i];
	movf	(_i),w
	addlw	_s&0ffh
	movwf	fsr0
	movf	indf,w
	bcf	status, 5	;RP0=0, select bank0
	bcf	status, 6	;RP1=0, select bank0
	movwf	(7)	;volatile
	goto	l2189
	
l1036:	
	line	30
	
l2189:	
;one 7segment.c: 30: i++;
	movlw	low(01h)
	addwf	(_i),f
	skipnc
	incf	(_i+1),f
	movlw	high(01h)
	addwf	(_i+1),f
	line	31
;one 7segment.c: 31: while(RA0==1);
	goto	l1037
	
l1038:	
	
l1037:	
	btfsc	(40/8),(40)&7
	goto	u2161
	goto	u2160
u2161:
	goto	l1037
u2160:
	goto	l2191
	
l1039:	
	line	32
	
l2191:	
;one 7segment.c: 32: _delay((unsigned long)((10)*(4000000/4000.0)));
	opt asmopt_off
movlw	13
movwf	((??_main+0)+0+1),f
	movlw	251
movwf	((??_main+0)+0),f
u2177:
	decfsz	((??_main+0)+0),f
	goto	u2177
	decfsz	((??_main+0)+0+1),f
	goto	u2177
	nop2
opt asmopt_on

	goto	l1032
	line	33
	
l1040:	
	line	19
	goto	l1032
	
l1041:	
	line	35
	
l1042:	
	global	start
	ljmp	start
	opt stack 0
GLOBAL	__end_of_main
	__end_of_main:
;; =============== function _main ends ============

	signat	_main,88
psect	maintext
	global	btemp
	btemp set 07Eh

	DABS	1,126,2	;btemp
	global	wtemp0
	wtemp0 set btemp
	end
